target datalayout = "e-m:e-p270:32:32-p271:32:32-p272:64:64-i64:64-i128:128-f80:128-n8:16:32:64-S128"
target triple = "x86_64-pc-linux-gnu"

%struct.SheerTable = type { [30 x i8], i16 }

; Function Attrs: cold nounwind optsize uwtable
define internal i32 @build_vlc(ptr noundef %0, ptr noundef %1) #1 {
  %3 = alloca ptr, align 8
  %4 = alloca ptr, align 8
  %5 = alloca ptr, align 8
  %6 = alloca [1024 x i8], align 16
  %7 = alloca i32, align 4
  %8 = alloca i32, align 4
  %9 = alloca i32, align 4
  %10 = alloca i32, align 4
  store ptr %0, ptr %3, align 8, !tbaa !171
  store ptr %1, ptr %4, align 8, !tbaa !45
  call void @llvm.lifetime.start.p0(i64 8, ptr %5) #9
  %11 = load ptr, ptr %4, align 8, !tbaa !45
  %12 = getelementptr inbounds nuw %struct.SheerTable, ptr %11, i32 0, i32 0
  %13 = getelementptr inbounds [30 x i8], ptr %12, i64 0, i64 0
  store ptr %13, ptr %5, align 8, !tbaa !52
  call void @llvm.lifetime.start.p0(i64 1024, ptr %6) #9
  call void @llvm.lifetime.start.p0(i64 4, ptr %7) #9
  store i32 0, ptr %7, align 4, !tbaa !42
  call void @llvm.lifetime.start.p0(i64 4, ptr %8) #9
  store i32 1, ptr %8, align 4, !tbaa !42
  call void @llvm.lifetime.start.p0(i64 4, ptr %9) #9
  store i32 1, ptr %9, align 4, !tbaa !42
  br label %14

14:                                               ; preds = %51, %2
  %15 = load i32, ptr %9, align 4, !tbaa !42
  %16 = icmp sgt i32 %15, 0
  br i1 %16, label %18, label %17

17:                                               ; preds = %14
  call void @llvm.lifetime.end.p0(i64 4, ptr %9) #9
  call void @llvm.lifetime.end.p0(i64 4, ptr %8) #9
  br label %55

18:                                               ; preds = %14
  call void @llvm.lifetime.start.p0(i64 4, ptr %10) #9
  %19 = load i32, ptr %7, align 4, !tbaa !42
  store i32 %19, ptr %10, align 4, !tbaa !42
  %20 = load i32, ptr %9, align 4, !tbaa !42
  %21 = icmp eq i32 %20, 16
  br i1 %21, label %22, label %29

22:                                               ; preds = %18
  %23 = load ptr, ptr %4, align 8, !tbaa !45
  %24 = getelementptr inbounds nuw %struct.SheerTable, ptr %23, i32 0, i32 1
  %25 = load i16, ptr %24, align 2, !tbaa !173
  %26 = zext i16 %25 to i32
  %27 = load i32, ptr %10, align 4, !tbaa !42
  %28 = add i32 %27, %26
  store i32 %28, ptr %10, align 4, !tbaa !42
  store i32 -1, ptr %8, align 4, !tbaa !42
  br label %36

29:                                               ; preds = %18
  %30 = load ptr, ptr %5, align 8, !tbaa !52
  %31 = getelementptr inbounds nuw i8, ptr %30, i32 1
  store ptr %31, ptr %5, align 8, !tbaa !52
  %32 = load i8, ptr %30, align 1, !tbaa !39
  %33 = zext i8 %32 to i32
  %34 = load i32, ptr %10, align 4, !tbaa !42
  %35 = add i32 %34, %33
  store i32 %35, ptr %10, align 4, !tbaa !42
  br label %36

36:                                               ; preds = %29, %22
  br label %37

37:                                               ; preds = %47, %36
  %38 = load i32, ptr %7, align 4, !tbaa !42
  %39 = load i32, ptr %10, align 4, !tbaa !42
  %40 = icmp ult i32 %38, %39
  br i1 %40, label %41, label %50

41:                                               ; preds = %37
  %42 = load i32, ptr %9, align 4, !tbaa !42
  %43 = trunc i32 %42 to i8
  %44 = load i32, ptr %7, align 4, !tbaa !42
  %45 = zext i32 %44 to i64
  %46 = getelementptr inbounds nuw [1024 x i8], ptr %6, i64 0, i64 %45
  store i8 %43, ptr %46, align 1, !tbaa !39
  br label %47

47:                                               ; preds = %41
  %48 = load i32, ptr %7, align 4, !tbaa !42
  %49 = add i32 %48, 1
  store i32 %49, ptr %7, align 4, !tbaa !42
  br label %37, !llvm.loop !175

50:                                               ; preds = %37
  call void @llvm.lifetime.end.p0(i64 4, ptr %10) #9
  br label %51

51:                                               ; preds = %50
  %52 = load i32, ptr %8, align 4, !tbaa !42
  %53 = load i32, ptr %9, align 4, !tbaa !42
  %54 = add nsw i32 %53, %52
  store i32 %54, ptr %9, align 4, !tbaa !42
  br label %14, !llvm.loop !176

55:                                               ; preds = %17
  %56 = load ptr, ptr %3, align 8, !tbaa !171
  call void @ff_vlc_free(ptr noundef %56)
  %57 = load ptr, ptr %3, align 8, !tbaa !171
  %58 = load i32, ptr %7, align 4, !tbaa !42
  %59 = getelementptr inbounds [1024 x i8], ptr %6, i64 0, i64 0
  %60 = call i32 @ff_vlc_init_from_lengths(ptr noundef %57, i32 noundef 12, i32 noundef %58, ptr noundef %59, i32 noundef 1, ptr noundef null, i32 noundef 0, i32 noundef 0, i32 noundef 0, i32 noundef 0, ptr noundef null)
  call void @llvm.lifetime.end.p0(i64 4, ptr %7) #9
  call void @llvm.lifetime.end.p0(i64 1024, ptr %6) #9
  call void @llvm.lifetime.end.p0(i64 8, ptr %5) #9
  ret i32 %60
}