; Function Attrs: cold nounwind optsize uwtable
define internal fastcc i32 @build_vlc(ptr noundef %0, ptr noundef readonly captures(none) %1) unnamed_addr #1 {
  %3 = alloca [1024 x i8], align 16
  call void @llvm.lifetime.start.p0(i64 1024, ptr nonnull %3) #7
  %4 = getelementptr inbounds nuw i8, ptr %1, i64 30
  br label %7

5:                                                ; preds = %._crit_edge
  tail call void @ff_vlc_free(ptr noundef %0) #7
  %6 = call i32 @ff_vlc_init_from_lengths(ptr noundef %0, i32 noundef 12, i32 noundef %.120.lcssa, ptr noundef nonnull %3, i32 noundef 1, ptr noundef null, i32 noundef 0, i32 noundef 0, i32 noundef 0, i32 noundef 0, ptr noundef null) #7
  call void @llvm.lifetime.end.p0(i64 1024, ptr nonnull %3) #7
  ret i32 %6

7:                                                ; preds = %2, %._crit_edge
  %.01727 = phi i32 [ 1, %2 ], [ %24, %._crit_edge ]
  %.01826 = phi i32 [ 1, %2 ], [ %.1, %._crit_edge ]
  %.01925 = phi i32 [ 0, %2 ], [ %.120.lcssa, %._crit_edge ]
  %.02124 = phi ptr [ %1, %2 ], [ %.122, %._crit_edge ]
  %8 = icmp eq i32 %.01727, 16
  br i1 %8, label %9, label %12

9:                                                ; preds = %7
  %10 = load i16, ptr %4, align 2, !tbaa !164
  %11 = zext i16 %10 to i32
  br label %16

12:                                               ; preds = %7
  %13 = getelementptr inbounds nuw i8, ptr %.02124, i64 1
  %14 = load i8, ptr %.02124, align 1, !tbaa !30
  %15 = zext i8 %14 to i32
  br label %16

16:                                               ; preds = %12, %9
  %.122 = phi ptr [ %.02124, %9 ], [ %13, %12 ]
  %.1 = phi i32 [ -1, %9 ], [ %.01826, %12 ]
  %.pn = phi i32 [ %11, %9 ], [ %15, %12 ]
  %.0 = add i32 %.pn, %.01925
  %17 = icmp ult i32 %.01925, %.0
  br i1 %17, label %.lr.ph, label %._crit_edge

.lr.ph:                                           ; preds = %16
  %18 = trunc i32 %.01727 to i8
  %19 = zext i32 %.01925 to i64
  %scevgep = getelementptr i8, ptr %3, i64 %19
  %20 = add nsw i32 %.pn, -1
  %21 = zext i32 %20 to i64
  %22 = add nuw nsw i64 %21, 1
  call void @llvm.memset.p0.i64(ptr noundef nonnull align 1 dereferenceable(1) %scevgep, i8 %18, i64 %22, i1 false), !tbaa !30
  %23 = add i32 %.01925, %.pn
  br label %._crit_edge

._crit_edge:                                      ; preds = %.lr.ph, %16
  %.120.lcssa = phi i32 [ %.01925, %16 ], [ %23, %.lr.ph ]
  %24 = add nsw i32 %.1, %.01727
  %25 = icmp sgt i32 %24, 0
  br i1 %25, label %7, label %5, !llvm.loop !166
}